target datalayout = "e-m:e-p270:32:32-p271:32:32-p272:64:64-i64:64-i128:128-f80:128-n8:16:32:64-S128"
target triple = "x86_64-unknown-linux-gnu"

%"class.facebook::velox::memory::MemoryManager" = type { i64, %"class.std::shared_ptr", %"class.std::unique_ptr", i16, i8, i8, i8, %"class.std::function", %"class.std::shared_ptr.2", %"class.std::vector", %"class.folly::SharedMutexImpl", %"class.std::unordered_map" }
%"class.std::shared_ptr" = type { %"class.std::__shared_ptr" }
%"class.std::__shared_ptr" = type { ptr, %"class.std::__shared_count" }
%"class.std::__shared_count" = type { ptr }
%"class.std::unique_ptr" = type { %"struct.std::__uniq_ptr_data" }
%"struct.std::__uniq_ptr_data" = type { %"class.std::__uniq_ptr_impl" }
%"class.std::__uniq_ptr_impl" = type { %"class.std::tuple" }
%"class.std::tuple" = type { %"struct.std::_Tuple_impl" }
%"struct.std::_Tuple_impl" = type { %"struct.std::_Head_base.1" }
%"struct.std::_Head_base.1" = type { ptr }
%"class.std::function" = type { %"class.std::_Function_base", ptr }
%"class.std::_Function_base" = type { %"union.std::_Any_data", ptr }
%"union.std::_Any_data" = type { %"union.std::_Nocopy_types" }
%"union.std::_Nocopy_types" = type { { i64, i64 } }
%"class.std::shared_ptr.2" = type { %"class.std::__shared_ptr.3" }
%"class.std::__shared_ptr.3" = type { ptr, %"class.std::__shared_count" }
%"class.std::vector" = type { %"struct.std::_Vector_base" }
%"struct.std::_Vector_base" = type { %"struct.std::_Vector_base<std::shared_ptr<facebook::velox::memory::MemoryPool>, std::allocator<std::shared_ptr<facebook::velox::memory::MemoryPool>>>::_Vector_impl" }
%"struct.std::_Vector_base<std::shared_ptr<facebook::velox::memory::MemoryPool>, std::allocator<std::shared_ptr<facebook::velox::memory::MemoryPool>>>::_Vector_impl" = type { %"struct.std::_Vector_base<std::shared_ptr<facebook::velox::memory::MemoryPool>, std::allocator<std::shared_ptr<facebook::velox::memory::MemoryPool>>>::_Vector_impl_data" }
%"struct.std::_Vector_base<std::shared_ptr<facebook::velox::memory::MemoryPool>, std::allocator<std::shared_ptr<facebook::velox::memory::MemoryPool>>>::_Vector_impl_data" = type { ptr, ptr, ptr }
%"class.folly::SharedMutexImpl" = type { %"struct.std::atomic" }
%"struct.std::atomic" = type { %"struct.std::__atomic_base" }
%"struct.std::__atomic_base" = type { i32 }
%"class.std::unordered_map" = type { %"class.std::_Hashtable" }
%"class.std::_Hashtable" = type { ptr, i64, %"struct.std::__detail::_Hash_node_base", i64, %"struct.std::__detail::_Prime_rehash_policy", ptr }
%"struct.std::__detail::_Hash_node_base" = type { ptr }
%"struct.std::__detail::_Prime_rehash_policy" = type { float, i64 }
%"class.folly::SharedMutexImpl<false>::ReadHolder" = type <{ ptr, %"struct.folly::SharedMutexToken", [4 x i8] }>
%"struct.folly::SharedMutexToken" = type { i16, i16 }
%"struct.std::hash.62" = type { i8 }
%"class.std::thread::id" = type { i64 }

@.str.17 = private unnamed_addr constant [74 x i8] c"vector::_M_range_check: __n (which is %zu) >= this->size() (which is %zu)\00", align 1

; Function Attrs: mustprogress nounwind uwtable
define linkonce_odr noundef ptr @_ZNKSt12__shared_ptrIN8facebook5velox6memory10MemoryPoolELN9__gnu_cxx12_Lock_policyE2EE3getEv(ptr noundef nonnull align 8 dereferenceable(16) %this) #2 comdat align 2 {
entry:
  %this.addr = alloca ptr, align 8
  store ptr %this, ptr %this.addr, align 8
  %this1 = load ptr, ptr %this.addr, align 8
  %_M_ptr = getelementptr inbounds %"class.std::__shared_ptr.3", ptr %this1, i32 0, i32 0
  %0 = load ptr, ptr %_M_ptr, align 8
  ret ptr %0
}

; Function Attrs: mustprogress uwtable
define linkonce_odr noundef i64 @_ZNSt10_Hash_impl4hashEPKvmm(ptr noundef %__ptr, i64 noundef %__clength, i64 noundef %__seed) #0 comdat align 2 {
entry:
  %__ptr.addr = alloca ptr, align 8
  %__clength.addr = alloca i64, align 8
  %__seed.addr = alloca i64, align 8
  store ptr %__ptr, ptr %__ptr.addr, align 8
  store i64 %__clength, ptr %__clength.addr, align 8
  store i64 %__seed, ptr %__seed.addr, align 8
  %0 = load ptr, ptr %__ptr.addr, align 8
  %1 = load i64, ptr %__clength.addr, align 8
  %2 = load i64, ptr %__seed.addr, align 8
  %call = call noundef i64 @_ZSt11_Hash_bytesPKvmm(ptr noundef %0, i64 noundef %1, i64 noundef %2)
  ret i64 %call
}

; Function Attrs: mustprogress nounwind uwtable
define linkonce_odr noundef ptr @_ZNKSt19__shared_ptr_accessIN8facebook5velox6memory10MemoryPoolELN9__gnu_cxx12_Lock_policyE2ELb0ELb0EE6_M_getEv(ptr noundef nonnull align 1 dereferenceable(1) %this) #2 comdat align 2 {
entry:
  %this.addr = alloca ptr, align 8
  store ptr %this, ptr %this.addr, align 8
  %this1 = load ptr, ptr %this.addr, align 8
  %call = call noundef ptr @_ZNKSt12__shared_ptrIN8facebook5velox6memory10MemoryPoolELN9__gnu_cxx12_Lock_policyE2EE3getEv(ptr noundef nonnull align 8 dereferenceable(16) %this1) #6
  ret ptr %call
}

; Function Attrs: mustprogress nounwind uwtable
define linkonce_odr noundef nonnull align 8 dereferenceable(16) ptr @_ZNSt6vectorISt10shared_ptrIN8facebook5velox6memory10MemoryPoolEESaIS5_EEixEm(ptr noundef nonnull align 8 dereferenceable(24) %this, i64 noundef %__n) #2 comdat align 2 {
entry:
  %this.addr = alloca ptr, align 8
  %__n.addr = alloca i64, align 8
  store ptr %this, ptr %this.addr, align 8
  store i64 %__n, ptr %__n.addr, align 8
  %this1 = load ptr, ptr %this.addr, align 8
  %_M_impl = getelementptr inbounds %"struct.std::_Vector_base", ptr %this1, i32 0, i32 0
  %_M_start = getelementptr inbounds %"struct.std::_Vector_base<std::shared_ptr<facebook::velox::memory::MemoryPool>, std::allocator<std::shared_ptr<facebook::velox::memory::MemoryPool>>>::_Vector_impl_data", ptr %_M_impl, i32 0, i32 0
  %0 = load ptr, ptr %_M_start, align 8
  %1 = load i64, ptr %__n.addr, align 8
  %add.ptr = getelementptr inbounds %"class.std::shared_ptr.2", ptr %0, i64 %1
  ret ptr %add.ptr
}

; Function Attrs: mustprogress uwtable
define linkonce_odr void @_ZNKSt6vectorISt10shared_ptrIN8facebook5velox6memory10MemoryPoolEESaIS5_EE14_M_range_checkEm(ptr noundef nonnull align 8 dereferenceable(24) %this, i64 noundef %__n) #0 comdat align 2 {
entry:
  %this.addr = alloca ptr, align 8
  %__n.addr = alloca i64, align 8
  store ptr %this, ptr %this.addr, align 8
  store i64 %__n, ptr %__n.addr, align 8
  %this1 = load ptr, ptr %this.addr, align 8
  %0 = load i64, ptr %__n.addr, align 8
  %call = call noundef i64 @_ZNKSt6vectorISt10shared_ptrIN8facebook5velox6memory10MemoryPoolEESaIS5_EE4sizeEv(ptr noundef nonnull align 8 dereferenceable(24) %this1) #6
  %cmp = icmp uge i64 %0, %call
  br i1 %cmp, label %if.then, label %if.end

if.then:                                          ; preds = %entry
  %1 = load i64, ptr %__n.addr, align 8
  %call2 = call noundef i64 @_ZNKSt6vectorISt10shared_ptrIN8facebook5velox6memory10MemoryPoolEESaIS5_EE4sizeEv(ptr noundef nonnull align 8 dereferenceable(24) %this1) #6
  call void (ptr, ...) @_ZSt24__throw_out_of_range_fmtPKcz(ptr noundef @.str.17, i64 noundef %1, i64 noundef %call2) #14
  unreachable

if.end:                                           ; preds = %entry
  ret void
}

; Function Attrs: mustprogress uwtable
define linkonce_odr noundef i64 @_ZNSt10_Hash_impl4hashImEEmRKT_(ptr noundef nonnull align 8 dereferenceable(8) %__val) #0 comdat align 2 {
entry:
  %__val.addr = alloca ptr, align 8
  store ptr %__val, ptr %__val.addr, align 8
  %0 = load ptr, ptr %__val.addr, align 8
  %call = call noundef i64 @_ZNSt10_Hash_impl4hashEPKvmm(ptr noundef %0, i64 noundef 8, i64 noundef 3339675911)
  ret i64 %call
}

; Function Attrs: mustprogress nounwind uwtable
define linkonce_odr void @_ZNSt6thread2idC2Em(ptr noundef nonnull align 8 dereferenceable(8) %this, i64 noundef %__id) unnamed_addr #2 comdat align 2 {
entry:
  %this.addr = alloca ptr, align 8
  %__id.addr = alloca i64, align 8
  store ptr %this, ptr %this.addr, align 8
  store i64 %__id, ptr %__id.addr, align 8
  %this1 = load ptr, ptr %this.addr, align 8
  %_M_thread = getelementptr inbounds %"class.std::thread::id", ptr %this1, i32 0, i32 0
  %0 = load i64, ptr %__id.addr, align 8
  store i64 %0, ptr %_M_thread, align 8
  ret void
}

; Function Attrs: mustprogress nounwind uwtable
define linkonce_odr noundef nonnull align 8 dereferenceable(168) ptr @_ZNKSt19__shared_ptr_accessIN8facebook5velox6memory10MemoryPoolELN9__gnu_cxx12_Lock_policyE2ELb0ELb0EEdeEv(ptr noundef nonnull align 1 dereferenceable(1) %this) #2 comdat align 2 {
entry:
  %this.addr = alloca ptr, align 8
  store ptr %this, ptr %this.addr, align 8
  %this1 = load ptr, ptr %this.addr, align 8
  br label %do.body

do.body:                                          ; preds = %entry
  br label %do.cond

do.cond:                                          ; preds = %do.body
  br label %do.end

do.end:                                           ; preds = %do.cond
  %call = call noundef ptr @_ZNKSt19__shared_ptr_accessIN8facebook5velox6memory10MemoryPoolELN9__gnu_cxx12_Lock_policyE2ELb0ELb0EE6_M_getEv(ptr noundef nonnull align 1 dereferenceable(1) %this1) #6
  ret ptr %call
}

; Function Attrs: mustprogress uwtable
define linkonce_odr noundef nonnull align 8 dereferenceable(16) ptr @_ZNSt6vectorISt10shared_ptrIN8facebook5velox6memory10MemoryPoolEESaIS5_EE2atEm(ptr noundef nonnull align 8 dereferenceable(24) %this, i64 noundef %__n) #0 comdat align 2 {
entry:
  %this.addr = alloca ptr, align 8
  %__n.addr = alloca i64, align 8
  store ptr %this, ptr %this.addr, align 8
  store i64 %__n, ptr %__n.addr, align 8
  %this1 = load ptr, ptr %this.addr, align 8
  %0 = load i64, ptr %__n.addr, align 8
  call void @_ZNKSt6vectorISt10shared_ptrIN8facebook5velox6memory10MemoryPoolEESaIS5_EE14_M_range_checkEm(ptr noundef nonnull align 8 dereferenceable(24) %this1, i64 noundef %0)
  %1 = load i64, ptr %__n.addr, align 8
  %call = call noundef nonnull align 8 dereferenceable(16) ptr @_ZNSt6vectorISt10shared_ptrIN8facebook5velox6memory10MemoryPoolEESaIS5_EEixEm(ptr noundef nonnull align 8 dereferenceable(24) %this1, i64 noundef %1) #6
  ret ptr %call
}

; Function Attrs: mustprogress nounwind uwtable
define linkonce_odr noundef i64 @_ZNKSt6vectorISt10shared_ptrIN8facebook5velox6memory10MemoryPoolEESaIS5_EE4sizeEv(ptr noundef nonnull align 8 dereferenceable(24) %this) #2 comdat align 2 {
entry:
  %this.addr = alloca ptr, align 8
  store ptr %this, ptr %this.addr, align 8
  %this1 = load ptr, ptr %this.addr, align 8
  %_M_impl = getelementptr inbounds %"struct.std::_Vector_base", ptr %this1, i32 0, i32 0
  %_M_finish = getelementptr inbounds %"struct.std::_Vector_base<std::shared_ptr<facebook::velox::memory::MemoryPool>, std::allocator<std::shared_ptr<facebook::velox::memory::MemoryPool>>>::_Vector_impl_data", ptr %_M_impl, i32 0, i32 1
  %0 = load ptr, ptr %_M_finish, align 8
  %_M_impl2 = getelementptr inbounds %"struct.std::_Vector_base", ptr %this1, i32 0, i32 0
  %_M_start = getelementptr inbounds %"struct.std::_Vector_base<std::shared_ptr<facebook::velox::memory::MemoryPool>, std::allocator<std::shared_ptr<facebook::velox::memory::MemoryPool>>>::_Vector_impl_data", ptr %_M_impl2, i32 0, i32 0
  %1 = load ptr, ptr %_M_start, align 8
  %sub.ptr.lhs.cast = ptrtoint ptr %0 to i64
  %sub.ptr.rhs.cast = ptrtoint ptr %1 to i64
  %sub.ptr.sub = sub i64 %sub.ptr.lhs.cast, %sub.ptr.rhs.cast
  %sub.ptr.div = sdiv exact i64 %sub.ptr.sub, 16
  ret i64 %sub.ptr.div
}

; Function Attrs: mustprogress nounwind uwtable
define linkonce_odr noundef i64 @_ZNKSt4hashINSt6thread2idEEclERKS1_(ptr noundef nonnull align 1 dereferenceable(1) %this, ptr noundef nonnull align 8 dereferenceable(8) %__id) #2 comdat align 2 personality ptr @__gxx_personality_v0 {
entry:
  %this.addr = alloca ptr, align 8
  %__id.addr = alloca ptr, align 8
  store ptr %this, ptr %this.addr, align 8
  store ptr %__id, ptr %__id.addr, align 8
  %0 = load ptr, ptr %__id.addr, align 8
  %_M_thread = getelementptr inbounds %"class.std::thread::id", ptr %0, i32 0, i32 0
  %call = invoke noundef i64 @_ZNSt10_Hash_impl4hashImEEmRKT_(ptr noundef nonnull align 8 dereferenceable(8) %_M_thread)
          to label %invoke.cont unwind label %terminate.lpad

invoke.cont:                                      ; preds = %entry
  ret i64 %call

terminate.lpad:                                   ; preds = %entry
  %1 = landingpad { ptr, i32 }
          catch ptr null
  %2 = extractvalue { ptr, i32 } %1, 0
  call void @__clang_call_terminate(ptr %2) #15
  unreachable
}

; Function Attrs: mustprogress nounwind uwtable
define linkonce_odr i64 @_ZNSt11this_thread6get_idEv() #2 comdat personality ptr @__gxx_personality_v0 {
entry:
  %retval = alloca %"class.std::thread::id", align 8
  %call = call i64 @pthread_self() #16
  invoke void @_ZNSt6thread2idC2Em(ptr noundef nonnull align 8 dereferenceable(8) %retval, i64 noundef %call)
          to label %invoke.cont unwind label %terminate.lpad

invoke.cont:                                      ; preds = %entry
  %coerce.dive = getelementptr inbounds %"class.std::thread::id", ptr %retval, i32 0, i32 0
  %0 = load i64, ptr %coerce.dive, align 8
  ret i64 %0

terminate.lpad:                                   ; preds = %entry
  %1 = landingpad { ptr, i32 }
          catch ptr null
  %2 = extractvalue { ptr, i32 } %1, 0
  call void @__clang_call_terminate(ptr %2) #15
  unreachable
}

; Function Attrs: mustprogress uwtable
define noundef nonnull align 8 dereferenceable(168) ptr @_ZN8facebook5velox6memory13MemoryManager24deprecatedSharedLeafPoolEv(ptr noundef nonnull align 8 dereferenceable(176) %this) #0 align 2 personality ptr @__gxx_personality_v0 {
entry:
  %this.addr = alloca ptr, align 8
  %idx = alloca i64, align 8
  %ref.tmp = alloca %"struct.std::hash.62", align 1
  %ref.tmp2 = alloca %"class.std::thread::id", align 8
  %guard = alloca %"class.folly::SharedMutexImpl<false>::ReadHolder", align 8
  %exn.slot = alloca ptr, align 8
  %ehselector.slot = alloca i32, align 4
  store ptr %this, ptr %this.addr, align 8
  %this1 = load ptr, ptr %this.addr, align 8
  %call = call i64 @_ZNSt11this_thread6get_idEv() #6
  %coerce.dive = getelementptr inbounds %"class.std::thread::id", ptr %ref.tmp2, i32 0, i32 0
  store i64 %call, ptr %coerce.dive, align 8
  %call3 = call noundef i64 @_ZNKSt4hashINSt6thread2idEEclERKS1_(ptr noundef nonnull align 1 dereferenceable(1) %ref.tmp, ptr noundef nonnull align 8 dereferenceable(8) %ref.tmp2) #6
  store i64 %call3, ptr %idx, align 8
  %mutex_ = getelementptr inbounds %"class.facebook::velox::memory::MemoryManager", ptr %this1, i32 0, i32 10
  call void @_ZN5folly15SharedMutexImplILb0EvSt6atomicNS_24SharedMutexPolicyDefaultEE10ReadHolderC1ERKS3_(ptr noundef nonnull align 8 dereferenceable(12) %guard, ptr noundef nonnull align 4 dereferenceable(4) %mutex_)
  %sharedLeafPools_ = getelementptr inbounds %"class.facebook::velox::memory::MemoryManager", ptr %this1, i32 0, i32 9
  %0 = load i64, ptr %idx, align 8
  %sharedLeafPools_4 = getelementptr inbounds %"class.facebook::velox::memory::MemoryManager", ptr %this1, i32 0, i32 9
  %call5 = call noundef i64 @_ZNKSt6vectorISt10shared_ptrIN8facebook5velox6memory10MemoryPoolEESaIS5_EE4sizeEv(ptr noundef nonnull align 8 dereferenceable(24) %sharedLeafPools_4) #6
  %rem = urem i64 %0, %call5
  %call6 = invoke noundef nonnull align 8 dereferenceable(16) ptr @_ZNSt6vectorISt10shared_ptrIN8facebook5velox6memory10MemoryPoolEESaIS5_EE2atEm(ptr noundef nonnull align 8 dereferenceable(24) %sharedLeafPools_, i64 noundef %rem)
          to label %invoke.cont unwind label %lpad

invoke.cont:                                      ; preds = %entry
  %call7 = call noundef nonnull align 8 dereferenceable(168) ptr @_ZNKSt19__shared_ptr_accessIN8facebook5velox6memory10MemoryPoolELN9__gnu_cxx12_Lock_policyE2ELb0ELb0EEdeEv(ptr noundef nonnull align 1 dereferenceable(1) %call6) #6
  call void @_ZN5folly15SharedMutexImplILb0EvSt6atomicNS_24SharedMutexPolicyDefaultEE10ReadHolderD1Ev(ptr noundef nonnull align 8 dereferenceable(12) %guard) #6
  ret ptr %call7

lpad:                                             ; preds = %entry
  %1 = landingpad { ptr, i32 }
          cleanup
  %2 = extractvalue { ptr, i32 } %1, 0
  store ptr %2, ptr %exn.slot, align 8
  %3 = extractvalue { ptr, i32 } %1, 1
  store i32 %3, ptr %ehselector.slot, align 4
  call void @_ZN5folly15SharedMutexImplILb0EvSt6atomicNS_24SharedMutexPolicyDefaultEE10ReadHolderD1Ev(ptr noundef nonnull align 8 dereferenceable(12) %guard) #6
  br label %eh.resume

eh.resume:                                        ; preds = %lpad
  %exn = load ptr, ptr %exn.slot, align 8
  %sel = load i32, ptr %ehselector.slot, align 4
  %lpad.val = insertvalue { ptr, i32 } poison, ptr %exn, 0
  %lpad.val8 = insertvalue { ptr, i32 } %lpad.val, i32 %sel, 1
  resume { ptr, i32 } %lpad.val8
}