; Function Attrs: mustprogress uwtable
define noundef nonnull align 8 dereferenceable(168) ptr @_ZN8facebook5velox6memory13MemoryManager24deprecatedSharedLeafPoolEv(ptr noundef nonnull align 8 dereferenceable(176) %this) local_unnamed_addr #0 align 2 personality ptr @__gxx_personality_v0 {
entry:
  %ref.tmp2 = alloca %"class.std::thread::id", align 8
  %guard = alloca %"class.folly::SharedMutexImpl<false>::ReadHolder", align 8
  %call.i = tail call i64 @pthread_self() #24
  store i64 %call.i, ptr %ref.tmp2, align 8
  %call.i.i1.i = invoke noundef i64 @_ZSt11_Hash_bytesPKvmm(ptr noundef nonnull %ref.tmp2, i64 noundef 8, i64 noundef 3339675911)
          to label %invoke.cont unwind label %terminate.lpad.i

terminate.lpad.i:                                 ; preds = %entry
  %0 = landingpad { ptr, i32 }
          catch ptr null
  %1 = extractvalue { ptr, i32 } %0, 0
  call void @__clang_call_terminate(ptr %1) #21
  unreachable

invoke.cont:                                      ; preds = %entry
  %mutex_ = getelementptr inbounds i8, ptr %this, i64 112
  call void @_ZN5folly15SharedMutexImplILb0EvSt6atomicNS_24SharedMutexPolicyDefaultEE10ReadHolderC1ERKS3_(ptr noundef nonnull align 8 dereferenceable(12) %guard, ptr noundef nonnull align 4 dereferenceable(4) %mutex_)
  %sharedLeafPools_ = getelementptr inbounds i8, ptr %this, i64 88
  %_M_finish.i = getelementptr inbounds i8, ptr %this, i64 96
  %2 = load ptr, ptr %_M_finish.i, align 8
  %3 = load ptr, ptr %sharedLeafPools_, align 8
  %sub.ptr.lhs.cast.i = ptrtoint ptr %2 to i64
  %sub.ptr.rhs.cast.i = ptrtoint ptr %3 to i64
  %sub.ptr.sub.i = sub i64 %sub.ptr.lhs.cast.i, %sub.ptr.rhs.cast.i
  %sub.ptr.div.i = ashr exact i64 %sub.ptr.sub.i, 4
  %rem = urem i64 %call.i.i1.i, %sub.ptr.div.i
  %add.ptr.i.i = getelementptr inbounds %"class.std::shared_ptr.2", ptr %3, i64 %rem
  %4 = load ptr, ptr %add.ptr.i.i, align 8
  call void @_ZN5folly15SharedMutexImplILb0EvSt6atomicNS_24SharedMutexPolicyDefaultEE10ReadHolderD1Ev(ptr noundef nonnull align 8 dereferenceable(12) %guard) #19
  ret ptr %4
}